; Function Attrs: mustprogress uwtable
define dso_local noundef zeroext i1 @_ZNK20cmConditionEvaluator15GetBooleanValueER25cmExpandedCommandArgument(ptr noundef nonnull align 8 dereferenceable(44) %0, ptr noundef nonnull align 8 dereferenceable(33) %1) local_unnamed_addr #3 align 2 {
  %3 = alloca ptr, align 8
  %4 = tail call noundef nonnull align 8 dereferenceable(32) ptr @_ZNK25cmExpandedCommandArgument8GetValueB5cxx11Ev(ptr noundef nonnull align 8 dereferenceable(33) %1)
  %5 = tail call { i64, ptr } @_ZNKSt7__cxx1112basic_stringIcSt11char_traitsIcESaIcEEcvSt17basic_string_viewIcS2_EEv(ptr noundef nonnull align 8 dereferenceable(32) %4) #19
  %6 = extractvalue { i64, ptr } %5, 0
  %7 = extractvalue { i64, ptr } %5, 1
  %8 = tail call noundef zeroext i1 @_ZN7cmValue4IsOnESt17basic_string_viewIcSt11char_traitsIcEE(i64 %6, ptr %7) #19
  br i1 %8, label %_Z7cmIsOff7cmValue.exit, label %9

9:                                                ; preds = %2
  %10 = tail call noundef nonnull align 8 dereferenceable(32) ptr @_ZNK25cmExpandedCommandArgument8GetValueB5cxx11Ev(ptr noundef nonnull align 8 dereferenceable(33) %1)
  %11 = tail call { i64, ptr } @_ZNKSt7__cxx1112basic_stringIcSt11char_traitsIcESaIcEEcvSt17basic_string_viewIcS2_EEv(ptr noundef nonnull align 8 dereferenceable(32) %10) #19
  %12 = extractvalue { i64, ptr } %11, 0
  %13 = extractvalue { i64, ptr } %11, 1
  %14 = tail call noundef zeroext i1 @_ZN7cmValue5IsOffESt17basic_string_viewIcSt11char_traitsIcEE(i64 %12, ptr %13) #19
  br i1 %14, label %_Z7cmIsOff7cmValue.exit, label %15

15:                                               ; preds = %9
  %16 = tail call noundef zeroext i1 @_ZNK25cmExpandedCommandArgument5emptyEv(ptr noundef nonnull align 8 dereferenceable(33) %1)
  br i1 %16, label %26, label %17

17:                                               ; preds = %15
  %18 = tail call noundef nonnull align 8 dereferenceable(32) ptr @_ZNK25cmExpandedCommandArgument8GetValueB5cxx11Ev(ptr noundef nonnull align 8 dereferenceable(33) %1)
  %19 = tail call noundef ptr @_ZNKSt7__cxx1112basic_stringIcSt11char_traitsIcESaIcEE5c_strEv(ptr noundef nonnull align 8 dereferenceable(32) %18) #19
  %20 = call double @strtod(ptr noundef %19, ptr noundef nonnull %3) #19
  %21 = load ptr, ptr %3, align 8
  %22 = load i8, ptr %21, align 1
  %23 = icmp eq i8 %22, 0
  br i1 %23, label %24, label %26

24:                                               ; preds = %17
  %25 = fcmp une double %20, 0.000000e+00
  br label %_Z7cmIsOff7cmValue.exit

26:                                               ; preds = %17, %15
  %27 = tail call ptr @_ZNK20cmConditionEvaluator23GetDefinitionIfUnquotedERK25cmExpandedCommandArgument(ptr noundef nonnull align 8 dereferenceable(44) %0, ptr noundef nonnull align 8 dereferenceable(33) %1)
  %28 = icmp eq ptr %27, null
  br i1 %28, label %_Z7cmIsOff7cmValue.exit, label %29

29:                                               ; preds = %26
  %30 = tail call { i64, ptr } @_ZNKSt7__cxx1112basic_stringIcSt11char_traitsIcESaIcEEcvSt17basic_string_viewIcS2_EEv(ptr noundef nonnull align 8 dereferenceable(32) %27) #19
  %31 = extractvalue { i64, ptr } %30, 0
  %32 = extractvalue { i64, ptr } %30, 1
  %33 = tail call noundef zeroext i1 @_ZN7cmValue5IsOffESt17basic_string_viewIcSt11char_traitsIcEE(i64 %31, ptr %32) #19
  %34 = xor i1 %33, true
  br label %_Z7cmIsOff7cmValue.exit

_Z7cmIsOff7cmValue.exit:                          ; preds = %29, %26, %9, %2, %24
  %.0 = phi i1 [ %25, %24 ], [ true, %2 ], [ false, %9 ], [ false, %26 ], [ %34, %29 ]
  ret i1 %.0
}